target datalayout = "e-m:e-p270:32:32-p271:32:32-p272:64:64-i64:64-i128:128-f80:128-n8:16:32:64-S128"
target triple = "x86_64-pc-linux-gnu"

%struct.prov_cipher_ctx_st = type { [16 x i8], [16 x i8], [16 x i8], ptr, %union.anon, i32, i64, i64, i64, i64, i32, i8, i32, ptr, i32, i64, i32, i64, i32, ptr, ptr, ptr }
%union.anon = type { ptr }

@.str.1 = private unnamed_addr constant [60 x i8] c"../openssl/providers/implementations/ciphers/ciphercommon.c\00", align 1
@__func__.ossl_cipher_generic_initiv = private unnamed_addr constant [27 x i8] c"ossl_cipher_generic_initiv\00", align 1

; Function Attrs: nounwind uwtable
define i32 @ossl_cipher_generic_initiv(ptr noundef %0, ptr noundef %1, i64 noundef %2) #0 {
  %4 = alloca i32, align 4
  %5 = alloca ptr, align 8
  %6 = alloca ptr, align 8
  %7 = alloca i64, align 8
  store ptr %0, ptr %5, align 8, !tbaa !13
  store ptr %1, ptr %6, align 8, !tbaa !25
  store i64 %2, ptr %7, align 8, !tbaa !11
  %8 = load i64, ptr %7, align 8, !tbaa !11
  %9 = load ptr, ptr %5, align 8, !tbaa !13
  %10 = getelementptr inbounds nuw %struct.prov_cipher_ctx_st, ptr %9, i32 0, i32 7
  %11 = load i64, ptr %10, align 8, !tbaa !28
  %12 = icmp ne i64 %8, %11
  br i1 %12, label %16, label %13

13:                                               ; preds = %3
  %14 = load i64, ptr %7, align 8, !tbaa !11
  %15 = icmp ugt i64 %14, 16
  br i1 %15, label %16, label %17

16:                                               ; preds = %13, %3
  call void @ERR_new()
  call void @ERR_set_debug(ptr noundef @.str.1, i32 noundef 707, ptr noundef @__func__.ossl_cipher_generic_initiv)
  call void (i32, i32, ptr, ...) @ERR_set_error(i32 noundef 57, i32 noundef 109, ptr noundef null)
  store i32 0, ptr %4, align 4
  br label %33

17:                                               ; preds = %13
  %18 = load ptr, ptr %5, align 8, !tbaa !13
  %19 = getelementptr inbounds nuw %struct.prov_cipher_ctx_st, ptr %18, i32 0, i32 11
  %20 = load i8, ptr %19, align 4
  %21 = and i8 %20, -5
  %22 = or i8 %21, 4
  store i8 %22, ptr %19, align 4
  %23 = load ptr, ptr %5, align 8, !tbaa !13
  %24 = getelementptr inbounds nuw %struct.prov_cipher_ctx_st, ptr %23, i32 0, i32 2
  %25 = getelementptr inbounds [16 x i8], ptr %24, i64 0, i64 0
  %26 = load ptr, ptr %6, align 8, !tbaa !25
  %27 = load i64, ptr %7, align 8, !tbaa !11
  call void @llvm.memcpy.p0.p0.i64(ptr align 8 %25, ptr align 1 %26, i64 %27, i1 false)
  %28 = load ptr, ptr %5, align 8, !tbaa !13
  %29 = getelementptr inbounds nuw %struct.prov_cipher_ctx_st, ptr %28, i32 0, i32 0
  %30 = getelementptr inbounds [16 x i8], ptr %29, i64 0, i64 0
  %31 = load ptr, ptr %6, align 8, !tbaa !25
  %32 = load i64, ptr %7, align 8, !tbaa !11
  call void @llvm.memcpy.p0.p0.i64(ptr align 8 %30, ptr align 1 %31, i64 %32, i1 false)
  store i32 1, ptr %4, align 4
  br label %33

33:                                               ; preds = %17, %16
  %34 = load i32, ptr %4, align 4
  ret i32 %34
}