; Function Attrs: nounwind uwtable
define range(i32 0, 2) i32 @ossl_cipher_generic_initiv(ptr noundef captures(none) %0, ptr noundef readonly captures(none) %1, i64 noundef %2) local_unnamed_addr #1 {
  %4 = getelementptr inbounds nuw i8, ptr %0, i64 80
  %5 = load i64, ptr %4, align 8, !tbaa !22
  %6 = icmp ne i64 %2, %5
  %7 = icmp ugt i64 %2, 16
  %or.cond = or i1 %7, %6
  br i1 %or.cond, label %8, label %9

8:                                                ; preds = %3
  tail call void @ERR_new() #6
  tail call void @ERR_set_debug(ptr noundef nonnull @.str.1, i32 noundef 707, ptr noundef nonnull @__func__.ossl_cipher_generic_initiv) #6
  tail call void (i32, i32, ptr, ...) @ERR_set_error(i32 noundef 57, i32 noundef 109, ptr noundef null) #6
  br label %14

9:                                                ; preds = %3
  %10 = getelementptr inbounds nuw i8, ptr %0, i64 108
  %11 = load i8, ptr %10, align 4
  %12 = or i8 %11, 4
  store i8 %12, ptr %10, align 4
  %13 = getelementptr inbounds nuw i8, ptr %0, i64 32
  tail call void @llvm.memcpy.p0.p0.i64(ptr nonnull align 8 %13, ptr align 1 %1, i64 %2, i1 false)
  tail call void @llvm.memcpy.p0.p0.i64(ptr nonnull align 8 %0, ptr align 1 %1, i64 %2, i1 false)
  br label %14

14:                                               ; preds = %9, %8
  %.0 = phi i32 [ 0, %8 ], [ 1, %9 ]
  ret i32 %.0
}